target datalayout = "e-m:e-p270:32:32-p271:32:32-p272:64:64-i64:64-i128:128-f80:128-n8:16:32:64-S128"
target triple = "x86_64-pc-linux-gnu"

%struct.client_io_info = type { i32, ptr, %struct.io_hdr_t, ptr, i32, i8, ptr, ptr, i32, i8, i32, i32, i8, i32, i8 }
%struct.io_hdr_t = type { i32, i16, i16, i32 }
%struct.stepd_step_rec_t = type { ptr, ptr, i32, %union.pthread_cond_t, %union.pthread_mutex_t, %struct.slurm_step_id_msg, i32, i32, i32, i32, i32, i32, ptr, ptr, i32, i32, ptr, i32, i32, i32, i32, i32, ptr, ptr, ptr, ptr, i32, i32, i64, i64, i16, i32, ptr, ptr, ptr, i32, ptr, i32, ptr, i32, ptr, i16, i32, i32, i32, ptr, i32, ptr, ptr, ptr, ptr, i32, i32, ptr, ptr, i8, i8, i8, i64, i32, ptr, ptr, ptr, ptr, ptr, ptr, ptr, ptr, ptr, ptr, i32, i32, ptr, i8, %union.pthread_cond_t, %union.pthread_mutex_t, i64, ptr, i32, i32, i32, ptr, i64, ptr, ptr, i8, ptr, i16, ptr, ptr, ptr, ptr, ptr, ptr, i64, ptr, i64, ptr, i16, i8, i16, i32, ptr, i16, ptr, ptr, i16, ptr, ptr, ptr, i8 }
%struct.slurm_step_id_msg = type { i64, i32, i32, i32 }
%union.pthread_cond_t = type { %struct.__pthread_cond_s }
%struct.__pthread_cond_s = type { %union.__atomic_wide_counter, %union.__atomic_wide_counter, [2 x i32], [2 x i32], i32, i32, [2 x i32] }
%union.__atomic_wide_counter = type { i64 }
%union.pthread_mutex_t = type { %struct.__pthread_mutex_s }
%struct.__pthread_mutex_s = type { i32, i32, i32, i32, i32, i16, i16, %struct.__pthread_internal_list }
%struct.__pthread_internal_list = type { ptr, ptr }
%struct.srun_info_t = type { ptr, %struct.sockaddr_storage, %struct.sockaddr_storage, i32, i16 }
%struct.sockaddr_storage = type { i16, [118 x i8], i64 }

@client_ops = dso_local global { ptr, ptr, ptr, ptr, ptr, ptr, ptr, i32, [4 x i8] } { ptr @_client_readable, ptr @_client_writable, ptr null, ptr @_client_read, ptr @_client_write, ptr null, ptr null, i32 0, [4 x i8] zeroinitializer }, align 8
@.str.12 = private unnamed_addr constant [5 x i8] c"io.c\00", align 1
@.str.14 = private unnamed_addr constant [44 x i8] c"adding IO connection (logical node rank %d)\00", align 1
@.str.16 = private unnamed_addr constant [26 x i8] c"connecting IO back to %pA\00", align 1
@.str.17 = private unnamed_addr constant [15 x i8] c"connect io: %m\00", align 1
@.str.18 = private unnamed_addr constant [30 x i8] c"  back from _send_io_init_msg\00", align 1
@__func__.io_client_connect = private unnamed_addr constant [18 x i8] c"io_client_connect\00", align 1
@.str.19 = private unnamed_addr constant [27 x i8] c"New IO Client object added\00", align 1

; Function Attrs: nounwind uwtable
define dso_local i32 @io_client_connect(ptr noundef %0, ptr noundef %1) #0 {
  %3 = alloca i32, align 4
  %4 = alloca ptr, align 8
  %5 = alloca ptr, align 8
  %6 = alloca i32, align 4
  %7 = alloca ptr, align 8
  %8 = alloca ptr, align 8
  %9 = alloca i32, align 4
  store ptr %0, ptr %4, align 8
  store ptr %1, ptr %5, align 8
  call void @llvm.lifetime.start.p0(i64 4, ptr %6) #10
  store i32 -1, ptr %6, align 4
  call void @llvm.lifetime.start.p0(i64 8, ptr %7) #10
  call void @llvm.lifetime.start.p0(i64 8, ptr %8) #10
  br label %10

10:                                               ; preds = %2
  br label %11

11:                                               ; preds = %10
  %12 = call i32 @get_log_level()
  %13 = icmp sge i32 %12, 8
  br i1 %13, label %14, label %18

14:                                               ; preds = %11
  %15 = load ptr, ptr %5, align 8
  %16 = getelementptr inbounds nuw %struct.stepd_step_rec_t, ptr %15, i32 0, i32 10
  %17 = load i32, ptr %16, align 8
  call void (i32, ptr, ...) @log_var(i32 noundef 8, ptr noundef @.str.14, i32 noundef %17)
  br label %18

18:                                               ; preds = %14, %11
  br label %19

19:                                               ; preds = %18
  br label %20

20:                                               ; preds = %19
  br label %21

21:                                               ; preds = %20
  br label %22

22:                                               ; preds = %21
  %23 = load ptr, ptr %4, align 8
  %24 = getelementptr inbounds nuw %struct.srun_info_t, ptr %23, i32 0, i32 2
  %25 = call zeroext i1 @slurm_addr_is_unspec(ptr noundef %24)
  br i1 %25, label %39, label %26

26:                                               ; preds = %22
  br label %27

27:                                               ; preds = %26
  br label %28

28:                                               ; preds = %27
  %29 = call i32 @get_log_level()
  %30 = icmp sge i32 %29, 8
  br i1 %30, label %31, label %34

31:                                               ; preds = %28
  %32 = load ptr, ptr %4, align 8
  %33 = getelementptr inbounds nuw %struct.srun_info_t, ptr %32, i32 0, i32 2
  call void (i32, ptr, ...) @log_var(i32 noundef 8, ptr noundef @.str.16, ptr noundef %33)
  br label %34

34:                                               ; preds = %31, %28
  br label %35

35:                                               ; preds = %34
  br label %36

36:                                               ; preds = %35
  br label %37

37:                                               ; preds = %36
  br label %38

38:                                               ; preds = %37
  br label %39

39:                                               ; preds = %38, %22
  %40 = load ptr, ptr %4, align 8
  %41 = getelementptr inbounds nuw %struct.srun_info_t, ptr %40, i32 0, i32 2
  %42 = call i32 @slurm_open_stream(ptr noundef %41, i1 noundef zeroext true)
  store i32 %42, ptr %6, align 4
  %43 = icmp slt i32 %42, 0
  br i1 %43, label %44, label %46

44:                                               ; preds = %39
  %45 = call i32 (ptr, ...) @error(ptr noundef @.str.17)
  store i32 -1, ptr %3, align 4
  store i32 1, ptr %9, align 4
  br label %98

46:                                               ; preds = %39
  %47 = load i32, ptr %6, align 4
  call void @fd_set_blocking(i32 noundef %47)
  %48 = load i32, ptr %6, align 4
  %49 = load ptr, ptr %4, align 8
  %50 = load ptr, ptr %5, align 8
  %51 = call i32 @_send_io_init_msg(i32 noundef %48, ptr noundef %49, ptr noundef %50, i1 noundef zeroext false)
  br label %52

52:                                               ; preds = %46
  br label %53

53:                                               ; preds = %52
  %54 = call i32 @get_log_level()
  %55 = icmp sge i32 %54, 9
  br i1 %55, label %56, label %57

56:                                               ; preds = %53
  call void (i32, ptr, ...) @log_var(i32 noundef 9, ptr noundef @.str.18)
  br label %57

57:                                               ; preds = %56, %53
  br label %58

58:                                               ; preds = %57
  br label %59

59:                                               ; preds = %58
  br label %60

60:                                               ; preds = %59
  br label %61

61:                                               ; preds = %60
  %62 = load i32, ptr %6, align 4
  call void @fd_set_nonblocking(i32 noundef %62)
  %63 = call ptr @slurm_xcalloc(i64 noundef 1, i64 noundef 96, i1 noundef zeroext true, i1 noundef zeroext false, ptr noundef @.str.12, i32 noundef 1720, ptr noundef @__func__.io_client_connect)
  store ptr %63, ptr %7, align 8
  %64 = load ptr, ptr %7, align 8
  %65 = getelementptr inbounds nuw %struct.client_io_info, ptr %64, i32 0, i32 0
  store i32 65794, ptr %65, align 8
  %66 = load ptr, ptr %5, align 8
  %67 = load ptr, ptr %7, align 8
  %68 = getelementptr inbounds nuw %struct.client_io_info, ptr %67, i32 0, i32 1
  store ptr %66, ptr %68, align 8
  %69 = load ptr, ptr %7, align 8
  %70 = getelementptr inbounds nuw %struct.client_io_info, ptr %69, i32 0, i32 6
  store ptr null, ptr %70, align 8
  %71 = load ptr, ptr %7, align 8
  %72 = getelementptr inbounds nuw %struct.client_io_info, ptr %71, i32 0, i32 10
  store i32 -1, ptr %72, align 8
  %73 = load ptr, ptr %7, align 8
  %74 = getelementptr inbounds nuw %struct.client_io_info, ptr %73, i32 0, i32 11
  store i32 -1, ptr %74, align 4
  %75 = load ptr, ptr %7, align 8
  %76 = getelementptr inbounds nuw %struct.client_io_info, ptr %75, i32 0, i32 12
  store i8 0, ptr %76, align 8
  %77 = load ptr, ptr %7, align 8
  %78 = getelementptr inbounds nuw %struct.client_io_info, ptr %77, i32 0, i32 13
  store i32 0, ptr %78, align 4
  %79 = load ptr, ptr %7, align 8
  %80 = getelementptr inbounds nuw %struct.client_io_info, ptr %79, i32 0, i32 14
  store i8 0, ptr %80, align 8
  %81 = load i32, ptr %6, align 4
  %82 = load ptr, ptr %7, align 8
  %83 = call ptr @eio_obj_create(i32 noundef %81, ptr noundef @client_ops, ptr noundef %82)
  store ptr %83, ptr %8, align 8
  %84 = load ptr, ptr %5, align 8
  %85 = getelementptr inbounds nuw %struct.stepd_step_rec_t, ptr %84, i32 0, i32 63
  %86 = load ptr, ptr %85, align 8
  %87 = load ptr, ptr %8, align 8
  call void @eio_new_obj(ptr noundef %86, ptr noundef %87)
  br label %88

88:                                               ; preds = %61
  br label %89

89:                                               ; preds = %88
  %90 = call i32 @get_log_level()
  %91 = icmp sge i32 %90, 9
  br i1 %91, label %92, label %93

92:                                               ; preds = %89
  call void (i32, ptr, ...) @log_var(i32 noundef 9, ptr noundef @.str.19)
  br label %93

93:                                               ; preds = %92, %89
  br label %94

94:                                               ; preds = %93
  br label %95

95:                                               ; preds = %94
  br label %96

96:                                               ; preds = %95
  br label %97

97:                                               ; preds = %96
  store i32 0, ptr %3, align 4
  store i32 1, ptr %9, align 4
  br label %98

98:                                               ; preds = %97, %44
  call void @llvm.lifetime.end.p0(i64 8, ptr %8) #10
  call void @llvm.lifetime.end.p0(i64 8, ptr %7) #10
  call void @llvm.lifetime.end.p0(i64 4, ptr %6) #10
  %99 = load i32, ptr %3, align 4
  ret i32 %99
}