; Function Attrs: nounwind uwtable
define dso_local range(i32 -1, 1) i32 @io_client_connect(ptr noundef %0, ptr noundef %1) local_unnamed_addr #0 {
  %3 = tail call i32 @get_log_level() #11
  %4 = icmp sgt i32 %3, 7
  br i1 %4, label %5, label %8

5:                                                ; preds = %2
  %6 = getelementptr inbounds nuw i8, ptr %1, i64 152
  %7 = load i32, ptr %6, align 8
  tail call void (i32, ptr, ...) @log_var(i32 noundef 8, ptr noundef nonnull @.str.14, i32 noundef %7) #11
  br label %8

8:                                                ; preds = %5, %2
  %9 = getelementptr inbounds nuw i8, ptr %0, i64 136
  %10 = tail call zeroext i1 @slurm_addr_is_unspec(ptr noundef nonnull %9) #11
  br i1 %10, label %15, label %11

11:                                               ; preds = %8
  %12 = tail call i32 @get_log_level() #11
  %13 = icmp sgt i32 %12, 7
  br i1 %13, label %14, label %15

14:                                               ; preds = %11
  tail call void (i32, ptr, ...) @log_var(i32 noundef 8, ptr noundef nonnull @.str.16, ptr noundef nonnull %9) #11
  br label %15

15:                                               ; preds = %11, %14, %8
  %16 = tail call i32 @slurm_open_stream(ptr noundef nonnull %9, i1 noundef zeroext true) #11
  %17 = icmp slt i32 %16, 0
  br i1 %17, label %18, label %20

18:                                               ; preds = %15
  %19 = tail call i32 (ptr, ...) @error(ptr noundef nonnull @.str.17) #11
  br label %39

20:                                               ; preds = %15
  tail call void @fd_set_blocking(i32 noundef %16) #11
  tail call fastcc void @_send_io_init_msg(i32 noundef %16, ptr noundef nonnull %0, ptr noundef %1, i1 noundef zeroext false)
  %21 = tail call i32 @get_log_level() #11
  %22 = icmp sgt i32 %21, 8
  br i1 %22, label %23, label %24

23:                                               ; preds = %20
  tail call void (i32, ptr, ...) @log_var(i32 noundef 9, ptr noundef nonnull @.str.18) #11
  br label %24

24:                                               ; preds = %23, %20
  tail call void @fd_set_nonblocking(i32 noundef %16) #11
  %25 = tail call ptr @slurm_xcalloc(i64 noundef 1, i64 noundef 96, i1 noundef zeroext true, i1 noundef zeroext false, ptr noundef nonnull @.str.12, i32 noundef 1720, ptr noundef nonnull @__func__.io_client_connect) #11
  store i32 65794, ptr %25, align 8
  %26 = getelementptr inbounds nuw i8, ptr %25, i64 8
  store ptr %1, ptr %26, align 8
  %27 = getelementptr inbounds nuw i8, ptr %25, i64 48
  store ptr null, ptr %27, align 8
  %28 = getelementptr inbounds nuw i8, ptr %25, i64 72
  store i32 -1, ptr %28, align 8
  %29 = getelementptr inbounds nuw i8, ptr %25, i64 76
  store i32 -1, ptr %29, align 4
  %30 = getelementptr inbounds nuw i8, ptr %25, i64 80
  store i8 0, ptr %30, align 8
  %31 = getelementptr inbounds nuw i8, ptr %25, i64 84
  store i32 0, ptr %31, align 4
  %32 = getelementptr inbounds nuw i8, ptr %25, i64 88
  store i8 0, ptr %32, align 8
  %33 = tail call ptr @eio_obj_create(i32 noundef %16, ptr noundef nonnull @client_ops, ptr noundef nonnull %25) #11
  %34 = getelementptr inbounds nuw i8, ptr %1, i64 488
  %35 = load ptr, ptr %34, align 8
  tail call void @eio_new_obj(ptr noundef %35, ptr noundef %33) #11
  %36 = tail call i32 @get_log_level() #11
  %37 = icmp sgt i32 %36, 8
  br i1 %37, label %38, label %39

38:                                               ; preds = %24
  tail call void (i32, ptr, ...) @log_var(i32 noundef 9, ptr noundef nonnull @.str.19) #11
  br label %39

39:                                               ; preds = %24, %38, %18
  %.0 = phi i32 [ -1, %18 ], [ 0, %38 ], [ 0, %24 ]
  ret i32 %.0
}